
ATMega32_DIO_Driver.elf:     file format elf32-avr

Sections:
Idx Name          Size      VMA       LMA       File off  Algn
  0 .text         000008f6  00000000  00000000  00000054  2**1
                  CONTENTS, ALLOC, LOAD, READONLY, CODE
  1 .stab         000009e4  00000000  00000000  0000094c  2**2
                  CONTENTS, READONLY, DEBUGGING
  2 .stabstr      000006ab  00000000  00000000  00001330  2**0
                  CONTENTS, READONLY, DEBUGGING

Disassembly of section .text:

00000000 <__vectors>:
   0:	0c 94 2a 00 	jmp	0x54	; 0x54 <__ctors_end>
   4:	0c 94 34 00 	jmp	0x68	; 0x68 <__bad_interrupt>
   8:	0c 94 34 00 	jmp	0x68	; 0x68 <__bad_interrupt>
   c:	0c 94 34 00 	jmp	0x68	; 0x68 <__bad_interrupt>
  10:	0c 94 34 00 	jmp	0x68	; 0x68 <__bad_interrupt>
  14:	0c 94 34 00 	jmp	0x68	; 0x68 <__bad_interrupt>
  18:	0c 94 34 00 	jmp	0x68	; 0x68 <__bad_interrupt>
  1c:	0c 94 34 00 	jmp	0x68	; 0x68 <__bad_interrupt>
  20:	0c 94 34 00 	jmp	0x68	; 0x68 <__bad_interrupt>
  24:	0c 94 34 00 	jmp	0x68	; 0x68 <__bad_interrupt>
  28:	0c 94 34 00 	jmp	0x68	; 0x68 <__bad_interrupt>
  2c:	0c 94 34 00 	jmp	0x68	; 0x68 <__bad_interrupt>
  30:	0c 94 34 00 	jmp	0x68	; 0x68 <__bad_interrupt>
  34:	0c 94 34 00 	jmp	0x68	; 0x68 <__bad_interrupt>
  38:	0c 94 34 00 	jmp	0x68	; 0x68 <__bad_interrupt>
  3c:	0c 94 34 00 	jmp	0x68	; 0x68 <__bad_interrupt>
  40:	0c 94 34 00 	jmp	0x68	; 0x68 <__bad_interrupt>
  44:	0c 94 34 00 	jmp	0x68	; 0x68 <__bad_interrupt>
  48:	0c 94 34 00 	jmp	0x68	; 0x68 <__bad_interrupt>
  4c:	0c 94 34 00 	jmp	0x68	; 0x68 <__bad_interrupt>
  50:	0c 94 34 00 	jmp	0x68	; 0x68 <__bad_interrupt>

00000054 <__ctors_end>:
  54:	11 24       	eor	r1, r1
  56:	1f be       	out	0x3f, r1	; 63
  58:	cf e5       	ldi	r28, 0x5F	; 95
  5a:	d8 e0       	ldi	r29, 0x08	; 8
  5c:	de bf       	out	0x3e, r29	; 62
  5e:	cd bf       	out	0x3d, r28	; 61
  60:	0e 94 74 04 	call	0x8e8	; 0x8e8 <main>
  64:	0c 94 79 04 	jmp	0x8f2	; 0x8f2 <_exit>

00000068 <__bad_interrupt>:
  68:	0c 94 00 00 	jmp	0	; 0x0 <__vectors>

0000006c <DIO_uint8SetDirectionPIN>:
 */

#include "DIO_INTERFACE.h"

void DIO_uint8SetDirectionPIN(PORT_NAME Copy_Port,PIN_NAME Copy_Pin,PIN_DIR Copy_Dir)
{
  6c:	df 93       	push	r29
  6e:	cf 93       	push	r28
  70:	cd b7       	in	r28, 0x3d	; 61
  72:	de b7       	in	r29, 0x3e	; 62
  74:	28 97       	sbiw	r28, 0x08	; 8
  76:	0f b6       	in	r0, 0x3f	; 63
  78:	f8 94       	cli
  7a:	de bf       	out	0x3e, r29	; 62
  7c:	0f be       	out	0x3f, r0	; 63
  7e:	cd bf       	out	0x3d, r28	; 61
  80:	8a 83       	std	Y+2, r24	; 0x02
  82:	6b 83       	std	Y+3, r22	; 0x03
  84:	4c 83       	std	Y+4, r20	; 0x04
	uint8 DIO_L_ErrorCode;
	if (Copy_Pin>=0 && Copy_Pin<=7)
  86:	8b 81       	ldd	r24, Y+3	; 0x03
  88:	88 30       	cpi	r24, 0x08	; 8
  8a:	08 f0       	brcs	.+2      	; 0x8e <DIO_uint8SetDirectionPIN+0x22>
  8c:	f4 c0       	rjmp	.+488    	; 0x276 <DIO_uint8SetDirectionPIN+0x20a>
	{
		if (Copy_Dir==PIN_OUTPUT)
  8e:	8c 81       	ldd	r24, Y+4	; 0x04
  90:	81 30       	cpi	r24, 0x01	; 1
  92:	09 f0       	breq	.+2      	; 0x96 <DIO_uint8SetDirectionPIN+0x2a>
  94:	72 c0       	rjmp	.+228    	; 0x17a <DIO_uint8SetDirectionPIN+0x10e>
			{
				switch(Copy_Port)
  96:	8a 81       	ldd	r24, Y+2	; 0x02
  98:	28 2f       	mov	r18, r24
  9a:	30 e0       	ldi	r19, 0x00	; 0
  9c:	38 87       	std	Y+8, r19	; 0x08
  9e:	2f 83       	std	Y+7, r18	; 0x07
  a0:	8f 81       	ldd	r24, Y+7	; 0x07
  a2:	98 85       	ldd	r25, Y+8	; 0x08
  a4:	81 30       	cpi	r24, 0x01	; 1
  a6:	91 05       	cpc	r25, r1
  a8:	49 f1       	breq	.+82     	; 0xfc <DIO_uint8SetDirectionPIN+0x90>
  aa:	2f 81       	ldd	r18, Y+7	; 0x07
  ac:	38 85       	ldd	r19, Y+8	; 0x08
  ae:	22 30       	cpi	r18, 0x02	; 2
  b0:	31 05       	cpc	r19, r1
  b2:	2c f4       	brge	.+10     	; 0xbe <DIO_uint8SetDirectionPIN+0x52>
  b4:	8f 81       	ldd	r24, Y+7	; 0x07
  b6:	98 85       	ldd	r25, Y+8	; 0x08
  b8:	00 97       	sbiw	r24, 0x00	; 0
  ba:	61 f0       	breq	.+24     	; 0xd4 <DIO_uint8SetDirectionPIN+0x68>
  bc:	5b c0       	rjmp	.+182    	; 0x174 <DIO_uint8SetDirectionPIN+0x108>
  be:	2f 81       	ldd	r18, Y+7	; 0x07
  c0:	38 85       	ldd	r19, Y+8	; 0x08
  c2:	22 30       	cpi	r18, 0x02	; 2
  c4:	31 05       	cpc	r19, r1
  c6:	71 f1       	breq	.+92     	; 0x124 <DIO_uint8SetDirectionPIN+0xb8>
  c8:	8f 81       	ldd	r24, Y+7	; 0x07
  ca:	98 85       	ldd	r25, Y+8	; 0x08
  cc:	83 30       	cpi	r24, 0x03	; 3
  ce:	91 05       	cpc	r25, r1
  d0:	e9 f1       	breq	.+122    	; 0x14c <DIO_uint8SetDirectionPIN+0xe0>
  d2:	50 c0       	rjmp	.+160    	; 0x174 <DIO_uint8SetDirectionPIN+0x108>
				{
					case PORT_A: SET_BIT(DDRA,Copy_Pin);break;
  d4:	aa e3       	ldi	r26, 0x3A	; 58
  d6:	b0 e0       	ldi	r27, 0x00	; 0
  d8:	ea e3       	ldi	r30, 0x3A	; 58
  da:	f0 e0       	ldi	r31, 0x00	; 0
  dc:	80 81       	ld	r24, Z
  de:	48 2f       	mov	r20, r24
  e0:	8b 81       	ldd	r24, Y+3	; 0x03
  e2:	28 2f       	mov	r18, r24
  e4:	30 e0       	ldi	r19, 0x00	; 0
  e6:	81 e0       	ldi	r24, 0x01	; 1
  e8:	90 e0       	ldi	r25, 0x00	; 0
  ea:	02 2e       	mov	r0, r18
  ec:	02 c0       	rjmp	.+4      	; 0xf2 <DIO_uint8SetDirectionPIN+0x86>
  ee:	88 0f       	add	r24, r24
  f0:	99 1f       	adc	r25, r25
  f2:	0a 94       	dec	r0
  f4:	e2 f7       	brpl	.-8      	; 0xee <DIO_uint8SetDirectionPIN+0x82>
  f6:	84 2b       	or	r24, r20
  f8:	8c 93       	st	X, r24
  fa:	bf c0       	rjmp	.+382    	; 0x27a <DIO_uint8SetDirectionPIN+0x20e>
					case PORT_B: SET_BIT(DDRB,Copy_Pin);break;
  fc:	a7 e3       	ldi	r26, 0x37	; 55
  fe:	b0 e0       	ldi	r27, 0x00	; 0
 100:	e7 e3       	ldi	r30, 0x37	; 55
 102:	f0 e0       	ldi	r31, 0x00	; 0
 104:	80 81       	ld	r24, Z
 106:	48 2f       	mov	r20, r24
 108:	8b 81       	ldd	r24, Y+3	; 0x03
 10a:	28 2f       	mov	r18, r24
 10c:	30 e0       	ldi	r19, 0x00	; 0
 10e:	81 e0       	ldi	r24, 0x01	; 1
 110:	90 e0       	ldi	r25, 0x00	; 0
 112:	02 2e       	mov	r0, r18
 114:	02 c0       	rjmp	.+4      	; 0x11a <DIO_uint8SetDirectionPIN+0xae>
 116:	88 0f       	add	r24, r24
 118:	99 1f       	adc	r25, r25
 11a:	0a 94       	dec	r0
 11c:	e2 f7       	brpl	.-8      	; 0x116 <DIO_uint8SetDirectionPIN+0xaa>
 11e:	84 2b       	or	r24, r20
 120:	8c 93       	st	X, r24
 122:	ab c0       	rjmp	.+342    	; 0x27a <DIO_uint8SetDirectionPIN+0x20e>
					case PORT_C: SET_BIT(DDRC,Copy_Pin);break;
 124:	a4 e3       	ldi	r26, 0x34	; 52
 126:	b0 e0       	ldi	r27, 0x00	; 0
 128:	e4 e3       	ldi	r30, 0x34	; 52
 12a:	f0 e0       	ldi	r31, 0x00	; 0
 12c:	80 81       	ld	r24, Z
 12e:	48 2f       	mov	r20, r24
 130:	8b 81       	ldd	r24, Y+3	; 0x03
 132:	28 2f       	mov	r18, r24
 134:	30 e0       	ldi	r19, 0x00	; 0
 136:	81 e0       	ldi	r24, 0x01	; 1
 138:	90 e0       	ldi	r25, 0x00	; 0
 13a:	02 2e       	mov	r0, r18
 13c:	02 c0       	rjmp	.+4      	; 0x142 <DIO_uint8SetDirectionPIN+0xd6>
 13e:	88 0f       	add	r24, r24
 140:	99 1f       	adc	r25, r25
 142:	0a 94       	dec	r0
 144:	e2 f7       	brpl	.-8      	; 0x13e <DIO_uint8SetDirectionPIN+0xd2>
 146:	84 2b       	or	r24, r20
 148:	8c 93       	st	X, r24
 14a:	97 c0       	rjmp	.+302    	; 0x27a <DIO_uint8SetDirectionPIN+0x20e>
					case PORT_D: SET_BIT(DDRD,Copy_Pin);break;
 14c:	a1 e3       	ldi	r26, 0x31	; 49
 14e:	b0 e0       	ldi	r27, 0x00	; 0
 150:	e1 e3       	ldi	r30, 0x31	; 49
 152:	f0 e0       	ldi	r31, 0x00	; 0
 154:	80 81       	ld	r24, Z
 156:	48 2f       	mov	r20, r24
 158:	8b 81       	ldd	r24, Y+3	; 0x03
 15a:	28 2f       	mov	r18, r24
 15c:	30 e0       	ldi	r19, 0x00	; 0
 15e:	81 e0       	ldi	r24, 0x01	; 1
 160:	90 e0       	ldi	r25, 0x00	; 0
 162:	02 2e       	mov	r0, r18
 164:	02 c0       	rjmp	.+4      	; 0x16a <DIO_uint8SetDirectionPIN+0xfe>
 166:	88 0f       	add	r24, r24
 168:	99 1f       	adc	r25, r25
 16a:	0a 94       	dec	r0
 16c:	e2 f7       	brpl	.-8      	; 0x166 <DIO_uint8SetDirectionPIN+0xfa>
 16e:	84 2b       	or	r24, r20
 170:	8c 93       	st	X, r24
 172:	83 c0       	rjmp	.+262    	; 0x27a <DIO_uint8SetDirectionPIN+0x20e>
					default: DIO_L_ErrorCode=1;break;
 174:	81 e0       	ldi	r24, 0x01	; 1
 176:	89 83       	std	Y+1, r24	; 0x01
 178:	80 c0       	rjmp	.+256    	; 0x27a <DIO_uint8SetDirectionPIN+0x20e>
				}
			}
		else if (Copy_Dir==PIN_INPUT)
 17a:	8c 81       	ldd	r24, Y+4	; 0x04
 17c:	88 23       	and	r24, r24
 17e:	09 f0       	breq	.+2      	; 0x182 <DIO_uint8SetDirectionPIN+0x116>
 180:	77 c0       	rjmp	.+238    	; 0x270 <DIO_uint8SetDirectionPIN+0x204>
			{
				switch(Copy_Port)
 182:	8a 81       	ldd	r24, Y+2	; 0x02
 184:	28 2f       	mov	r18, r24
 186:	30 e0       	ldi	r19, 0x00	; 0
 188:	3e 83       	std	Y+6, r19	; 0x06
 18a:	2d 83       	std	Y+5, r18	; 0x05
 18c:	8d 81       	ldd	r24, Y+5	; 0x05
 18e:	9e 81       	ldd	r25, Y+6	; 0x06
 190:	81 30       	cpi	r24, 0x01	; 1
 192:	91 05       	cpc	r25, r1
 194:	59 f1       	breq	.+86     	; 0x1ec <DIO_uint8SetDirectionPIN+0x180>
 196:	2d 81       	ldd	r18, Y+5	; 0x05
 198:	3e 81       	ldd	r19, Y+6	; 0x06
 19a:	22 30       	cpi	r18, 0x02	; 2
 19c:	31 05       	cpc	r19, r1
 19e:	2c f4       	brge	.+10     	; 0x1aa <DIO_uint8SetDirectionPIN+0x13e>
 1a0:	8d 81       	ldd	r24, Y+5	; 0x05
 1a2:	9e 81       	ldd	r25, Y+6	; 0x06
 1a4:	00 97       	sbiw	r24, 0x00	; 0
 1a6:	69 f0       	breq	.+26     	; 0x1c2 <DIO_uint8SetDirectionPIN+0x156>
 1a8:	60 c0       	rjmp	.+192    	; 0x26a <DIO_uint8SetDirectionPIN+0x1fe>
 1aa:	2d 81       	ldd	r18, Y+5	; 0x05
 1ac:	3e 81       	ldd	r19, Y+6	; 0x06
 1ae:	22 30       	cpi	r18, 0x02	; 2
 1b0:	31 05       	cpc	r19, r1
 1b2:	89 f1       	breq	.+98     	; 0x216 <DIO_uint8SetDirectionPIN+0x1aa>
 1b4:	8d 81       	ldd	r24, Y+5	; 0x05
 1b6:	9e 81       	ldd	r25, Y+6	; 0x06
 1b8:	83 30       	cpi	r24, 0x03	; 3
 1ba:	91 05       	cpc	r25, r1
 1bc:	09 f4       	brne	.+2      	; 0x1c0 <DIO_uint8SetDirectionPIN+0x154>
 1be:	40 c0       	rjmp	.+128    	; 0x240 <DIO_uint8SetDirectionPIN+0x1d4>
 1c0:	54 c0       	rjmp	.+168    	; 0x26a <DIO_uint8SetDirectionPIN+0x1fe>
				{
					case PORT_A: CLEAR_BIT(DDRA,Copy_Pin);break;
 1c2:	aa e3       	ldi	r26, 0x3A	; 58
 1c4:	b0 e0       	ldi	r27, 0x00	; 0
 1c6:	ea e3       	ldi	r30, 0x3A	; 58
 1c8:	f0 e0       	ldi	r31, 0x00	; 0
 1ca:	80 81       	ld	r24, Z
 1cc:	48 2f       	mov	r20, r24
 1ce:	8b 81       	ldd	r24, Y+3	; 0x03
 1d0:	28 2f       	mov	r18, r24
 1d2:	30 e0       	ldi	r19, 0x00	; 0
 1d4:	81 e0       	ldi	r24, 0x01	; 1
 1d6:	90 e0       	ldi	r25, 0x00	; 0
 1d8:	02 2e       	mov	r0, r18
 1da:	02 c0       	rjmp	.+4      	; 0x1e0 <DIO_uint8SetDirectionPIN+0x174>
 1dc:	88 0f       	add	r24, r24
 1de:	99 1f       	adc	r25, r25
 1e0:	0a 94       	dec	r0
 1e2:	e2 f7       	brpl	.-8      	; 0x1dc <DIO_uint8SetDirectionPIN+0x170>
 1e4:	80 95       	com	r24
 1e6:	84 23       	and	r24, r20
 1e8:	8c 93       	st	X, r24
 1ea:	47 c0       	rjmp	.+142    	; 0x27a <DIO_uint8SetDirectionPIN+0x20e>
					case PORT_B: CLEAR_BIT(DDRB,Copy_Pin);break;
 1ec:	a7 e3       	ldi	r26, 0x37	; 55
 1ee:	b0 e0       	ldi	r27, 0x00	; 0
 1f0:	e7 e3       	ldi	r30, 0x37	; 55
 1f2:	f0 e0       	ldi	r31, 0x00	; 0
 1f4:	80 81       	ld	r24, Z
 1f6:	48 2f       	mov	r20, r24
 1f8:	8b 81       	ldd	r24, Y+3	; 0x03
 1fa:	28 2f       	mov	r18, r24
 1fc:	30 e0       	ldi	r19, 0x00	; 0
 1fe:	81 e0       	ldi	r24, 0x01	; 1
 200:	90 e0       	ldi	r25, 0x00	; 0
 202:	02 2e       	mov	r0, r18
 204:	02 c0       	rjmp	.+4      	; 0x20a <DIO_uint8SetDirectionPIN+0x19e>
 206:	88 0f       	add	r24, r24
 208:	99 1f       	adc	r25, r25
 20a:	0a 94       	dec	r0
 20c:	e2 f7       	brpl	.-8      	; 0x206 <DIO_uint8SetDirectionPIN+0x19a>
 20e:	80 95       	com	r24
 210:	84 23       	and	r24, r20
 212:	8c 93       	st	X, r24
 214:	32 c0       	rjmp	.+100    	; 0x27a <DIO_uint8SetDirectionPIN+0x20e>
					case PORT_C: CLEAR_BIT(DDRC,Copy_Pin);break;
 216:	a4 e3       	ldi	r26, 0x34	; 52
 218:	b0 e0       	ldi	r27, 0x00	; 0
 21a:	e4 e3       	ldi	r30, 0x34	; 52
 21c:	f0 e0       	ldi	r31, 0x00	; 0
 21e:	80 81       	ld	r24, Z
 220:	48 2f       	mov	r20, r24
 222:	8b 81       	ldd	r24, Y+3	; 0x03
 224:	28 2f       	mov	r18, r24
 226:	30 e0       	ldi	r19, 0x00	; 0
 228:	81 e0       	ldi	r24, 0x01	; 1
 22a:	90 e0       	ldi	r25, 0x00	; 0
 22c:	02 2e       	mov	r0, r18
 22e:	02 c0       	rjmp	.+4      	; 0x234 <DIO_uint8SetDirectionPIN+0x1c8>
 230:	88 0f       	add	r24, r24
 232:	99 1f       	adc	r25, r25
 234:	0a 94       	dec	r0
 236:	e2 f7       	brpl	.-8      	; 0x230 <DIO_uint8SetDirectionPIN+0x1c4>
 238:	80 95       	com	r24
 23a:	84 23       	and	r24, r20
 23c:	8c 93       	st	X, r24
 23e:	1d c0       	rjmp	.+58     	; 0x27a <DIO_uint8SetDirectionPIN+0x20e>
					case PORT_D: CLEAR_BIT(DDRD,Copy_Pin);break;
 240:	a1 e3       	ldi	r26, 0x31	; 49
 242:	b0 e0       	ldi	r27, 0x00	; 0
 244:	e1 e3       	ldi	r30, 0x31	; 49
 246:	f0 e0       	ldi	r31, 0x00	; 0
 248:	80 81       	ld	r24, Z
 24a:	48 2f       	mov	r20, r24
 24c:	8b 81       	ldd	r24, Y+3	; 0x03
 24e:	28 2f       	mov	r18, r24
 250:	30 e0       	ldi	r19, 0x00	; 0
 252:	81 e0       	ldi	r24, 0x01	; 1
 254:	90 e0       	ldi	r25, 0x00	; 0
 256:	02 2e       	mov	r0, r18
 258:	02 c0       	rjmp	.+4      	; 0x25e <DIO_uint8SetDirectionPIN+0x1f2>
 25a:	88 0f       	add	r24, r24
 25c:	99 1f       	adc	r25, r25
 25e:	0a 94       	dec	r0
 260:	e2 f7       	brpl	.-8      	; 0x25a <DIO_uint8SetDirectionPIN+0x1ee>
 262:	80 95       	com	r24
 264:	84 23       	and	r24, r20
 266:	8c 93       	st	X, r24
 268:	08 c0       	rjmp	.+16     	; 0x27a <DIO_uint8SetDirectionPIN+0x20e>
					default: DIO_L_ErrorCode=1;break;
 26a:	81 e0       	ldi	r24, 0x01	; 1
 26c:	89 83       	std	Y+1, r24	; 0x01
 26e:	05 c0       	rjmp	.+10     	; 0x27a <DIO_uint8SetDirectionPIN+0x20e>
				}
			}
		else
			DIO_L_ErrorCode=1;
 270:	81 e0       	ldi	r24, 0x01	; 1
 272:	89 83       	std	Y+1, r24	; 0x01
 274:	02 c0       	rjmp	.+4      	; 0x27a <DIO_uint8SetDirectionPIN+0x20e>
	}
	else
	{
		DIO_L_ErrorCode=1;
 276:	81 e0       	ldi	r24, 0x01	; 1
 278:	89 83       	std	Y+1, r24	; 0x01
	}
}
 27a:	28 96       	adiw	r28, 0x08	; 8
 27c:	0f b6       	in	r0, 0x3f	; 63
 27e:	f8 94       	cli
 280:	de bf       	out	0x3e, r29	; 62
 282:	0f be       	out	0x3f, r0	; 63
 284:	cd bf       	out	0x3d, r28	; 61
 286:	cf 91       	pop	r28
 288:	df 91       	pop	r29
 28a:	08 95       	ret

0000028c <DIO_uint8SetDirectionPort>:

/*----------------------------------------------------------------------------------*/

void DIO_uint8SetDirectionPort(PORT_NAME Copy_Port,PORT_DIR Copy_Dir)
{
 28c:	df 93       	push	r29
 28e:	cf 93       	push	r28
 290:	cd b7       	in	r28, 0x3d	; 61
 292:	de b7       	in	r29, 0x3e	; 62
 294:	27 97       	sbiw	r28, 0x07	; 7
 296:	0f b6       	in	r0, 0x3f	; 63
 298:	f8 94       	cli
 29a:	de bf       	out	0x3e, r29	; 62
 29c:	0f be       	out	0x3f, r0	; 63
 29e:	cd bf       	out	0x3d, r28	; 61
 2a0:	8a 83       	std	Y+2, r24	; 0x02
 2a2:	6b 83       	std	Y+3, r22	; 0x03
		uint8 DIO_L_ErrorCode;
		if (Copy_Dir==PORT_OUTPUT)
 2a4:	8b 81       	ldd	r24, Y+3	; 0x03
 2a6:	8f 3f       	cpi	r24, 0xFF	; 255
 2a8:	b1 f5       	brne	.+108    	; 0x316 <DIO_uint8SetDirectionPort+0x8a>
			{
				switch(Copy_Port)
 2aa:	8a 81       	ldd	r24, Y+2	; 0x02
 2ac:	28 2f       	mov	r18, r24
 2ae:	30 e0       	ldi	r19, 0x00	; 0
 2b0:	3f 83       	std	Y+7, r19	; 0x07
 2b2:	2e 83       	std	Y+6, r18	; 0x06
 2b4:	8e 81       	ldd	r24, Y+6	; 0x06
 2b6:	9f 81       	ldd	r25, Y+7	; 0x07
 2b8:	81 30       	cpi	r24, 0x01	; 1
 2ba:	91 05       	cpc	r25, r1
 2bc:	d1 f0       	breq	.+52     	; 0x2f2 <DIO_uint8SetDirectionPort+0x66>
 2be:	2e 81       	ldd	r18, Y+6	; 0x06
 2c0:	3f 81       	ldd	r19, Y+7	; 0x07
 2c2:	22 30       	cpi	r18, 0x02	; 2
 2c4:	31 05       	cpc	r19, r1
 2c6:	2c f4       	brge	.+10     	; 0x2d2 <DIO_uint8SetDirectionPort+0x46>
 2c8:	8e 81       	ldd	r24, Y+6	; 0x06
 2ca:	9f 81       	ldd	r25, Y+7	; 0x07
 2cc:	00 97       	sbiw	r24, 0x00	; 0
 2ce:	61 f0       	breq	.+24     	; 0x2e8 <DIO_uint8SetDirectionPort+0x5c>
 2d0:	1f c0       	rjmp	.+62     	; 0x310 <DIO_uint8SetDirectionPort+0x84>
 2d2:	2e 81       	ldd	r18, Y+6	; 0x06
 2d4:	3f 81       	ldd	r19, Y+7	; 0x07
 2d6:	22 30       	cpi	r18, 0x02	; 2
 2d8:	31 05       	cpc	r19, r1
 2da:	81 f0       	breq	.+32     	; 0x2fc <DIO_uint8SetDirectionPort+0x70>
 2dc:	8e 81       	ldd	r24, Y+6	; 0x06
 2de:	9f 81       	ldd	r25, Y+7	; 0x07
 2e0:	83 30       	cpi	r24, 0x03	; 3
 2e2:	91 05       	cpc	r25, r1
 2e4:	81 f0       	breq	.+32     	; 0x306 <DIO_uint8SetDirectionPort+0x7a>
 2e6:	14 c0       	rjmp	.+40     	; 0x310 <DIO_uint8SetDirectionPort+0x84>
				{
					case PORT_A:DDRA=PORT_OUTPUT;break;
 2e8:	ea e3       	ldi	r30, 0x3A	; 58
 2ea:	f0 e0       	ldi	r31, 0x00	; 0
 2ec:	8f ef       	ldi	r24, 0xFF	; 255
 2ee:	80 83       	st	Z, r24
 2f0:	49 c0       	rjmp	.+146    	; 0x384 <DIO_uint8SetDirectionPort+0xf8>
					case PORT_B:DDRB=PORT_OUTPUT;break;
 2f2:	e7 e3       	ldi	r30, 0x37	; 55
 2f4:	f0 e0       	ldi	r31, 0x00	; 0
 2f6:	8f ef       	ldi	r24, 0xFF	; 255
 2f8:	80 83       	st	Z, r24
 2fa:	44 c0       	rjmp	.+136    	; 0x384 <DIO_uint8SetDirectionPort+0xf8>
					case PORT_C:DDRC=PORT_OUTPUT;break;
 2fc:	e4 e3       	ldi	r30, 0x34	; 52
 2fe:	f0 e0       	ldi	r31, 0x00	; 0
 300:	8f ef       	ldi	r24, 0xFF	; 255
 302:	80 83       	st	Z, r24
 304:	3f c0       	rjmp	.+126    	; 0x384 <DIO_uint8SetDirectionPort+0xf8>
					case PORT_D:DDRD=PORT_OUTPUT;break;
 306:	e1 e3       	ldi	r30, 0x31	; 49
 308:	f0 e0       	ldi	r31, 0x00	; 0
 30a:	8f ef       	ldi	r24, 0xFF	; 255
 30c:	80 83       	st	Z, r24
 30e:	3a c0       	rjmp	.+116    	; 0x384 <DIO_uint8SetDirectionPort+0xf8>
					default: DIO_L_ErrorCode=1;break;
 310:	81 e0       	ldi	r24, 0x01	; 1
 312:	89 83       	std	Y+1, r24	; 0x01
 314:	37 c0       	rjmp	.+110    	; 0x384 <DIO_uint8SetDirectionPort+0xf8>
				}
			}
		else if (Copy_Dir==PORT_INPUT)
 316:	8b 81       	ldd	r24, Y+3	; 0x03
 318:	88 23       	and	r24, r24
 31a:	91 f5       	brne	.+100    	; 0x380 <DIO_uint8SetDirectionPort+0xf4>
			{
				switch(Copy_Port)
 31c:	8a 81       	ldd	r24, Y+2	; 0x02
 31e:	28 2f       	mov	r18, r24
 320:	30 e0       	ldi	r19, 0x00	; 0
 322:	3d 83       	std	Y+5, r19	; 0x05
 324:	2c 83       	std	Y+4, r18	; 0x04
 326:	8c 81       	ldd	r24, Y+4	; 0x04
 328:	9d 81       	ldd	r25, Y+5	; 0x05
 32a:	81 30       	cpi	r24, 0x01	; 1
 32c:	91 05       	cpc	r25, r1
 32e:	c9 f0       	breq	.+50     	; 0x362 <DIO_uint8SetDirectionPort+0xd6>
 330:	2c 81       	ldd	r18, Y+4	; 0x04
 332:	3d 81       	ldd	r19, Y+5	; 0x05
 334:	22 30       	cpi	r18, 0x02	; 2
 336:	31 05       	cpc	r19, r1
 338:	2c f4       	brge	.+10     	; 0x344 <DIO_uint8SetDirectionPort+0xb8>
 33a:	8c 81       	ldd	r24, Y+4	; 0x04
 33c:	9d 81       	ldd	r25, Y+5	; 0x05
 33e:	00 97       	sbiw	r24, 0x00	; 0
 340:	61 f0       	breq	.+24     	; 0x35a <DIO_uint8SetDirectionPort+0xce>
 342:	1b c0       	rjmp	.+54     	; 0x37a <DIO_uint8SetDirectionPort+0xee>
 344:	2c 81       	ldd	r18, Y+4	; 0x04
 346:	3d 81       	ldd	r19, Y+5	; 0x05
 348:	22 30       	cpi	r18, 0x02	; 2
 34a:	31 05       	cpc	r19, r1
 34c:	71 f0       	breq	.+28     	; 0x36a <DIO_uint8SetDirectionPort+0xde>
 34e:	8c 81       	ldd	r24, Y+4	; 0x04
 350:	9d 81       	ldd	r25, Y+5	; 0x05
 352:	83 30       	cpi	r24, 0x03	; 3
 354:	91 05       	cpc	r25, r1
 356:	69 f0       	breq	.+26     	; 0x372 <DIO_uint8SetDirectionPort+0xe6>
 358:	10 c0       	rjmp	.+32     	; 0x37a <DIO_uint8SetDirectionPort+0xee>
				{
					case PORT_A: DDRA=PORT_INPUT;break;
 35a:	ea e3       	ldi	r30, 0x3A	; 58
 35c:	f0 e0       	ldi	r31, 0x00	; 0
 35e:	10 82       	st	Z, r1
 360:	11 c0       	rjmp	.+34     	; 0x384 <DIO_uint8SetDirectionPort+0xf8>
					case PORT_B: DDRB=PORT_INPUT;break;
 362:	e7 e3       	ldi	r30, 0x37	; 55
 364:	f0 e0       	ldi	r31, 0x00	; 0
 366:	10 82       	st	Z, r1
 368:	0d c0       	rjmp	.+26     	; 0x384 <DIO_uint8SetDirectionPort+0xf8>
					case PORT_C: DDRC=PORT_INPUT;break;
 36a:	e4 e3       	ldi	r30, 0x34	; 52
 36c:	f0 e0       	ldi	r31, 0x00	; 0
 36e:	10 82       	st	Z, r1
 370:	09 c0       	rjmp	.+18     	; 0x384 <DIO_uint8SetDirectionPort+0xf8>
					case PORT_D: DDRD=PORT_INPUT;break;
 372:	e1 e3       	ldi	r30, 0x31	; 49
 374:	f0 e0       	ldi	r31, 0x00	; 0
 376:	10 82       	st	Z, r1
 378:	05 c0       	rjmp	.+10     	; 0x384 <DIO_uint8SetDirectionPort+0xf8>
					default: DIO_L_ErrorCode=1;break;
 37a:	81 e0       	ldi	r24, 0x01	; 1
 37c:	89 83       	std	Y+1, r24	; 0x01
 37e:	02 c0       	rjmp	.+4      	; 0x384 <DIO_uint8SetDirectionPort+0xf8>
				}
			}
		else
			DIO_L_ErrorCode=1;
 380:	81 e0       	ldi	r24, 0x01	; 1
 382:	89 83       	std	Y+1, r24	; 0x01
	}
 384:	27 96       	adiw	r28, 0x07	; 7
 386:	0f b6       	in	r0, 0x3f	; 63
 388:	f8 94       	cli
 38a:	de bf       	out	0x3e, r29	; 62
 38c:	0f be       	out	0x3f, r0	; 63
 38e:	cd bf       	out	0x3d, r28	; 61
 390:	cf 91       	pop	r28
 392:	df 91       	pop	r29
 394:	08 95       	ret

00000396 <DIO_uint8SetValuePIN>:


/*---------------------------------------------------------------------------------------------*/

void DIO_uint8SetValuePIN(PORT_NAME Copy_Port,PIN_NAME Copy_Pin,PIN_VALUE Copy_Value)
{
 396:	df 93       	push	r29
 398:	cf 93       	push	r28
 39a:	cd b7       	in	r28, 0x3d	; 61
 39c:	de b7       	in	r29, 0x3e	; 62
 39e:	28 97       	sbiw	r28, 0x08	; 8
 3a0:	0f b6       	in	r0, 0x3f	; 63
 3a2:	f8 94       	cli
 3a4:	de bf       	out	0x3e, r29	; 62
 3a6:	0f be       	out	0x3f, r0	; 63
 3a8:	cd bf       	out	0x3d, r28	; 61
 3aa:	8a 83       	std	Y+2, r24	; 0x02
 3ac:	6b 83       	std	Y+3, r22	; 0x03
 3ae:	4c 83       	std	Y+4, r20	; 0x04
	uint8 DIO_L_ErrorCode;
	if (Copy_Pin>=0 && Copy_Pin<=7)
 3b0:	8b 81       	ldd	r24, Y+3	; 0x03
 3b2:	88 30       	cpi	r24, 0x08	; 8
 3b4:	08 f0       	brcs	.+2      	; 0x3b8 <DIO_uint8SetValuePIN+0x22>
 3b6:	f4 c0       	rjmp	.+488    	; 0x5a0 <DIO_uint8SetValuePIN+0x20a>
	{
		if (Copy_Value==PIN_HIGH)
 3b8:	8c 81       	ldd	r24, Y+4	; 0x04
 3ba:	81 30       	cpi	r24, 0x01	; 1
 3bc:	09 f0       	breq	.+2      	; 0x3c0 <DIO_uint8SetValuePIN+0x2a>
 3be:	72 c0       	rjmp	.+228    	; 0x4a4 <DIO_uint8SetValuePIN+0x10e>
			{
				switch(Copy_Port)
 3c0:	8a 81       	ldd	r24, Y+2	; 0x02
 3c2:	28 2f       	mov	r18, r24
 3c4:	30 e0       	ldi	r19, 0x00	; 0
 3c6:	38 87       	std	Y+8, r19	; 0x08
 3c8:	2f 83       	std	Y+7, r18	; 0x07
 3ca:	8f 81       	ldd	r24, Y+7	; 0x07
 3cc:	98 85       	ldd	r25, Y+8	; 0x08
 3ce:	81 30       	cpi	r24, 0x01	; 1
 3d0:	91 05       	cpc	r25, r1
 3d2:	49 f1       	breq	.+82     	; 0x426 <DIO_uint8SetValuePIN+0x90>
 3d4:	2f 81       	ldd	r18, Y+7	; 0x07
 3d6:	38 85       	ldd	r19, Y+8	; 0x08
 3d8:	22 30       	cpi	r18, 0x02	; 2
 3da:	31 05       	cpc	r19, r1
 3dc:	2c f4       	brge	.+10     	; 0x3e8 <DIO_uint8SetValuePIN+0x52>
 3de:	8f 81       	ldd	r24, Y+7	; 0x07
 3e0:	98 85       	ldd	r25, Y+8	; 0x08
 3e2:	00 97       	sbiw	r24, 0x00	; 0
 3e4:	61 f0       	breq	.+24     	; 0x3fe <DIO_uint8SetValuePIN+0x68>
 3e6:	5b c0       	rjmp	.+182    	; 0x49e <DIO_uint8SetValuePIN+0x108>
 3e8:	2f 81       	ldd	r18, Y+7	; 0x07
 3ea:	38 85       	ldd	r19, Y+8	; 0x08
 3ec:	22 30       	cpi	r18, 0x02	; 2
 3ee:	31 05       	cpc	r19, r1
 3f0:	71 f1       	breq	.+92     	; 0x44e <DIO_uint8SetValuePIN+0xb8>
 3f2:	8f 81       	ldd	r24, Y+7	; 0x07
 3f4:	98 85       	ldd	r25, Y+8	; 0x08
 3f6:	83 30       	cpi	r24, 0x03	; 3
 3f8:	91 05       	cpc	r25, r1
 3fa:	e9 f1       	breq	.+122    	; 0x476 <DIO_uint8SetValuePIN+0xe0>
 3fc:	50 c0       	rjmp	.+160    	; 0x49e <DIO_uint8SetValuePIN+0x108>
				{
					case PORT_A: SET_BIT(PORTA,Copy_Pin);break;
 3fe:	ab e3       	ldi	r26, 0x3B	; 59
 400:	b0 e0       	ldi	r27, 0x00	; 0
 402:	eb e3       	ldi	r30, 0x3B	; 59
 404:	f0 e0       	ldi	r31, 0x00	; 0
 406:	80 81       	ld	r24, Z
 408:	48 2f       	mov	r20, r24
 40a:	8b 81       	ldd	r24, Y+3	; 0x03
 40c:	28 2f       	mov	r18, r24
 40e:	30 e0       	ldi	r19, 0x00	; 0
 410:	81 e0       	ldi	r24, 0x01	; 1
 412:	90 e0       	ldi	r25, 0x00	; 0
 414:	02 2e       	mov	r0, r18
 416:	02 c0       	rjmp	.+4      	; 0x41c <DIO_uint8SetValuePIN+0x86>
 418:	88 0f       	add	r24, r24
 41a:	99 1f       	adc	r25, r25
 41c:	0a 94       	dec	r0
 41e:	e2 f7       	brpl	.-8      	; 0x418 <DIO_uint8SetValuePIN+0x82>
 420:	84 2b       	or	r24, r20
 422:	8c 93       	st	X, r24
 424:	bf c0       	rjmp	.+382    	; 0x5a4 <DIO_uint8SetValuePIN+0x20e>
					case PORT_B: SET_BIT(PORTB,Copy_Pin);break;
 426:	a8 e3       	ldi	r26, 0x38	; 56
 428:	b0 e0       	ldi	r27, 0x00	; 0
 42a:	e8 e3       	ldi	r30, 0x38	; 56
 42c:	f0 e0       	ldi	r31, 0x00	; 0
 42e:	80 81       	ld	r24, Z
 430:	48 2f       	mov	r20, r24
 432:	8b 81       	ldd	r24, Y+3	; 0x03
 434:	28 2f       	mov	r18, r24
 436:	30 e0       	ldi	r19, 0x00	; 0
 438:	81 e0       	ldi	r24, 0x01	; 1
 43a:	90 e0       	ldi	r25, 0x00	; 0
 43c:	02 2e       	mov	r0, r18
 43e:	02 c0       	rjmp	.+4      	; 0x444 <DIO_uint8SetValuePIN+0xae>
 440:	88 0f       	add	r24, r24
 442:	99 1f       	adc	r25, r25
 444:	0a 94       	dec	r0
 446:	e2 f7       	brpl	.-8      	; 0x440 <DIO_uint8SetValuePIN+0xaa>
 448:	84 2b       	or	r24, r20
 44a:	8c 93       	st	X, r24
 44c:	ab c0       	rjmp	.+342    	; 0x5a4 <DIO_uint8SetValuePIN+0x20e>
					case PORT_C: SET_BIT(PORTC,Copy_Pin);break;
 44e:	a5 e3       	ldi	r26, 0x35	; 53
 450:	b0 e0       	ldi	r27, 0x00	; 0
 452:	e5 e3       	ldi	r30, 0x35	; 53
 454:	f0 e0       	ldi	r31, 0x00	; 0
 456:	80 81       	ld	r24, Z
 458:	48 2f       	mov	r20, r24
 45a:	8b 81       	ldd	r24, Y+3	; 0x03
 45c:	28 2f       	mov	r18, r24
 45e:	30 e0       	ldi	r19, 0x00	; 0
 460:	81 e0       	ldi	r24, 0x01	; 1
 462:	90 e0       	ldi	r25, 0x00	; 0
 464:	02 2e       	mov	r0, r18
 466:	02 c0       	rjmp	.+4      	; 0x46c <DIO_uint8SetValuePIN+0xd6>
 468:	88 0f       	add	r24, r24
 46a:	99 1f       	adc	r25, r25
 46c:	0a 94       	dec	r0
 46e:	e2 f7       	brpl	.-8      	; 0x468 <DIO_uint8SetValuePIN+0xd2>
 470:	84 2b       	or	r24, r20
 472:	8c 93       	st	X, r24
 474:	97 c0       	rjmp	.+302    	; 0x5a4 <DIO_uint8SetValuePIN+0x20e>
					case PORT_D: SET_BIT(PORTD,Copy_Pin);break;
 476:	a2 e3       	ldi	r26, 0x32	; 50
 478:	b0 e0       	ldi	r27, 0x00	; 0
 47a:	e2 e3       	ldi	r30, 0x32	; 50
 47c:	f0 e0       	ldi	r31, 0x00	; 0
 47e:	80 81       	ld	r24, Z
 480:	48 2f       	mov	r20, r24
 482:	8b 81       	ldd	r24, Y+3	; 0x03
 484:	28 2f       	mov	r18, r24
 486:	30 e0       	ldi	r19, 0x00	; 0
 488:	81 e0       	ldi	r24, 0x01	; 1
 48a:	90 e0       	ldi	r25, 0x00	; 0
 48c:	02 2e       	mov	r0, r18
 48e:	02 c0       	rjmp	.+4      	; 0x494 <DIO_uint8SetValuePIN+0xfe>
 490:	88 0f       	add	r24, r24
 492:	99 1f       	adc	r25, r25
 494:	0a 94       	dec	r0
 496:	e2 f7       	brpl	.-8      	; 0x490 <DIO_uint8SetValuePIN+0xfa>
 498:	84 2b       	or	r24, r20
 49a:	8c 93       	st	X, r24
 49c:	83 c0       	rjmp	.+262    	; 0x5a4 <DIO_uint8SetValuePIN+0x20e>
					default: DIO_L_ErrorCode=1;break;
 49e:	81 e0       	ldi	r24, 0x01	; 1
 4a0:	89 83       	std	Y+1, r24	; 0x01
 4a2:	80 c0       	rjmp	.+256    	; 0x5a4 <DIO_uint8SetValuePIN+0x20e>
				}
			}
		else if (Copy_Value==PIN_LOW)
 4a4:	8c 81       	ldd	r24, Y+4	; 0x04
 4a6:	88 23       	and	r24, r24
 4a8:	09 f0       	breq	.+2      	; 0x4ac <DIO_uint8SetValuePIN+0x116>
 4aa:	77 c0       	rjmp	.+238    	; 0x59a <DIO_uint8SetValuePIN+0x204>
			{
				switch(Copy_Port)
 4ac:	8a 81       	ldd	r24, Y+2	; 0x02
 4ae:	28 2f       	mov	r18, r24
 4b0:	30 e0       	ldi	r19, 0x00	; 0
 4b2:	3e 83       	std	Y+6, r19	; 0x06
 4b4:	2d 83       	std	Y+5, r18	; 0x05
 4b6:	8d 81       	ldd	r24, Y+5	; 0x05
 4b8:	9e 81       	ldd	r25, Y+6	; 0x06
 4ba:	81 30       	cpi	r24, 0x01	; 1
 4bc:	91 05       	cpc	r25, r1
 4be:	59 f1       	breq	.+86     	; 0x516 <DIO_uint8SetValuePIN+0x180>
 4c0:	2d 81       	ldd	r18, Y+5	; 0x05
 4c2:	3e 81       	ldd	r19, Y+6	; 0x06
 4c4:	22 30       	cpi	r18, 0x02	; 2
 4c6:	31 05       	cpc	r19, r1
 4c8:	2c f4       	brge	.+10     	; 0x4d4 <DIO_uint8SetValuePIN+0x13e>
 4ca:	8d 81       	ldd	r24, Y+5	; 0x05
 4cc:	9e 81       	ldd	r25, Y+6	; 0x06
 4ce:	00 97       	sbiw	r24, 0x00	; 0
 4d0:	69 f0       	breq	.+26     	; 0x4ec <DIO_uint8SetValuePIN+0x156>
 4d2:	60 c0       	rjmp	.+192    	; 0x594 <DIO_uint8SetValuePIN+0x1fe>
 4d4:	2d 81       	ldd	r18, Y+5	; 0x05
 4d6:	3e 81       	ldd	r19, Y+6	; 0x06
 4d8:	22 30       	cpi	r18, 0x02	; 2
 4da:	31 05       	cpc	r19, r1
 4dc:	89 f1       	breq	.+98     	; 0x540 <DIO_uint8SetValuePIN+0x1aa>
 4de:	8d 81       	ldd	r24, Y+5	; 0x05
 4e0:	9e 81       	ldd	r25, Y+6	; 0x06
 4e2:	83 30       	cpi	r24, 0x03	; 3
 4e4:	91 05       	cpc	r25, r1
 4e6:	09 f4       	brne	.+2      	; 0x4ea <DIO_uint8SetValuePIN+0x154>
 4e8:	40 c0       	rjmp	.+128    	; 0x56a <DIO_uint8SetValuePIN+0x1d4>
 4ea:	54 c0       	rjmp	.+168    	; 0x594 <DIO_uint8SetValuePIN+0x1fe>
				{
					case PORT_A: CLEAR_BIT(PORTA,Copy_Pin);break;
 4ec:	ab e3       	ldi	r26, 0x3B	; 59
 4ee:	b0 e0       	ldi	r27, 0x00	; 0
 4f0:	eb e3       	ldi	r30, 0x3B	; 59
 4f2:	f0 e0       	ldi	r31, 0x00	; 0
 4f4:	80 81       	ld	r24, Z
 4f6:	48 2f       	mov	r20, r24
 4f8:	8b 81       	ldd	r24, Y+3	; 0x03
 4fa:	28 2f       	mov	r18, r24
 4fc:	30 e0       	ldi	r19, 0x00	; 0
 4fe:	81 e0       	ldi	r24, 0x01	; 1
 500:	90 e0       	ldi	r25, 0x00	; 0
 502:	02 2e       	mov	r0, r18
 504:	02 c0       	rjmp	.+4      	; 0x50a <DIO_uint8SetValuePIN+0x174>
 506:	88 0f       	add	r24, r24
 508:	99 1f       	adc	r25, r25
 50a:	0a 94       	dec	r0
 50c:	e2 f7       	brpl	.-8      	; 0x506 <DIO_uint8SetValuePIN+0x170>
 50e:	80 95       	com	r24
 510:	84 23       	and	r24, r20
 512:	8c 93       	st	X, r24
 514:	47 c0       	rjmp	.+142    	; 0x5a4 <DIO_uint8SetValuePIN+0x20e>
					case PORT_B: CLEAR_BIT(PORTB,Copy_Pin);break;
 516:	a8 e3       	ldi	r26, 0x38	; 56
 518:	b0 e0       	ldi	r27, 0x00	; 0
 51a:	e8 e3       	ldi	r30, 0x38	; 56
 51c:	f0 e0       	ldi	r31, 0x00	; 0
 51e:	80 81       	ld	r24, Z
 520:	48 2f       	mov	r20, r24
 522:	8b 81       	ldd	r24, Y+3	; 0x03
 524:	28 2f       	mov	r18, r24
 526:	30 e0       	ldi	r19, 0x00	; 0
 528:	81 e0       	ldi	r24, 0x01	; 1
 52a:	90 e0       	ldi	r25, 0x00	; 0
 52c:	02 2e       	mov	r0, r18
 52e:	02 c0       	rjmp	.+4      	; 0x534 <DIO_uint8SetValuePIN+0x19e>
 530:	88 0f       	add	r24, r24
 532:	99 1f       	adc	r25, r25
 534:	0a 94       	dec	r0
 536:	e2 f7       	brpl	.-8      	; 0x530 <DIO_uint8SetValuePIN+0x19a>
 538:	80 95       	com	r24
 53a:	84 23       	and	r24, r20
 53c:	8c 93       	st	X, r24
 53e:	32 c0       	rjmp	.+100    	; 0x5a4 <DIO_uint8SetValuePIN+0x20e>
					case PORT_C: CLEAR_BIT(PORTC,Copy_Pin);break;
 540:	a5 e3       	ldi	r26, 0x35	; 53
 542:	b0 e0       	ldi	r27, 0x00	; 0
 544:	e5 e3       	ldi	r30, 0x35	; 53
 546:	f0 e0       	ldi	r31, 0x00	; 0
 548:	80 81       	ld	r24, Z
 54a:	48 2f       	mov	r20, r24
 54c:	8b 81       	ldd	r24, Y+3	; 0x03
 54e:	28 2f       	mov	r18, r24
 550:	30 e0       	ldi	r19, 0x00	; 0
 552:	81 e0       	ldi	r24, 0x01	; 1
 554:	90 e0       	ldi	r25, 0x00	; 0
 556:	02 2e       	mov	r0, r18
 558:	02 c0       	rjmp	.+4      	; 0x55e <DIO_uint8SetValuePIN+0x1c8>
 55a:	88 0f       	add	r24, r24
 55c:	99 1f       	adc	r25, r25
 55e:	0a 94       	dec	r0
 560:	e2 f7       	brpl	.-8      	; 0x55a <DIO_uint8SetValuePIN+0x1c4>
 562:	80 95       	com	r24
 564:	84 23       	and	r24, r20
 566:	8c 93       	st	X, r24
 568:	1d c0       	rjmp	.+58     	; 0x5a4 <DIO_uint8SetValuePIN+0x20e>
					case PORT_D: CLEAR_BIT(PORTD,Copy_Pin);break;
 56a:	a2 e3       	ldi	r26, 0x32	; 50
 56c:	b0 e0       	ldi	r27, 0x00	; 0
 56e:	e2 e3       	ldi	r30, 0x32	; 50
 570:	f0 e0       	ldi	r31, 0x00	; 0
 572:	80 81       	ld	r24, Z
 574:	48 2f       	mov	r20, r24
 576:	8b 81       	ldd	r24, Y+3	; 0x03
 578:	28 2f       	mov	r18, r24
 57a:	30 e0       	ldi	r19, 0x00	; 0
 57c:	81 e0       	ldi	r24, 0x01	; 1
 57e:	90 e0       	ldi	r25, 0x00	; 0
 580:	02 2e       	mov	r0, r18
 582:	02 c0       	rjmp	.+4      	; 0x588 <DIO_uint8SetValuePIN+0x1f2>
 584:	88 0f       	add	r24, r24
 586:	99 1f       	adc	r25, r25
 588:	0a 94       	dec	r0
 58a:	e2 f7       	brpl	.-8      	; 0x584 <DIO_uint8SetValuePIN+0x1ee>
 58c:	80 95       	com	r24
 58e:	84 23       	and	r24, r20
 590:	8c 93       	st	X, r24
 592:	08 c0       	rjmp	.+16     	; 0x5a4 <DIO_uint8SetValuePIN+0x20e>
					default: DIO_L_ErrorCode=1;break;
 594:	81 e0       	ldi	r24, 0x01	; 1
 596:	89 83       	std	Y+1, r24	; 0x01
 598:	05 c0       	rjmp	.+10     	; 0x5a4 <DIO_uint8SetValuePIN+0x20e>
				}
			}
		else
			DIO_L_ErrorCode=1;
 59a:	81 e0       	ldi	r24, 0x01	; 1
 59c:	89 83       	std	Y+1, r24	; 0x01
 59e:	02 c0       	rjmp	.+4      	; 0x5a4 <DIO_uint8SetValuePIN+0x20e>
	}
	else
	{
		DIO_L_ErrorCode=1;
 5a0:	81 e0       	ldi	r24, 0x01	; 1
 5a2:	89 83       	std	Y+1, r24	; 0x01
	}
}
 5a4:	28 96       	adiw	r28, 0x08	; 8
 5a6:	0f b6       	in	r0, 0x3f	; 63
 5a8:	f8 94       	cli
 5aa:	de bf       	out	0x3e, r29	; 62
 5ac:	0f be       	out	0x3f, r0	; 63
 5ae:	cd bf       	out	0x3d, r28	; 61
 5b0:	cf 91       	pop	r28
 5b2:	df 91       	pop	r29
 5b4:	08 95       	ret

000005b6 <DIO_uint8SetValuePort>:

/*-------------------------------------------------------------------------------------*/

void DIO_uint8SetValuePort(PORT_NAME Copy_Port,PORT_VALUE Copy_Value)
{
 5b6:	df 93       	push	r29
 5b8:	cf 93       	push	r28
 5ba:	cd b7       	in	r28, 0x3d	; 61
 5bc:	de b7       	in	r29, 0x3e	; 62
 5be:	27 97       	sbiw	r28, 0x07	; 7
 5c0:	0f b6       	in	r0, 0x3f	; 63
 5c2:	f8 94       	cli
 5c4:	de bf       	out	0x3e, r29	; 62
 5c6:	0f be       	out	0x3f, r0	; 63
 5c8:	cd bf       	out	0x3d, r28	; 61
 5ca:	8a 83       	std	Y+2, r24	; 0x02
 5cc:	6b 83       	std	Y+3, r22	; 0x03
		uint8 DIO_L_ErrorCode;
		if (Copy_Value==PORT_HIGH)
 5ce:	8b 81       	ldd	r24, Y+3	; 0x03
 5d0:	8f 3f       	cpi	r24, 0xFF	; 255
 5d2:	b1 f5       	brne	.+108    	; 0x640 <DIO_uint8SetValuePort+0x8a>
			{
				switch(Copy_Port)
 5d4:	8a 81       	ldd	r24, Y+2	; 0x02
 5d6:	28 2f       	mov	r18, r24
 5d8:	30 e0       	ldi	r19, 0x00	; 0
 5da:	3f 83       	std	Y+7, r19	; 0x07
 5dc:	2e 83       	std	Y+6, r18	; 0x06
 5de:	8e 81       	ldd	r24, Y+6	; 0x06
 5e0:	9f 81       	ldd	r25, Y+7	; 0x07
 5e2:	81 30       	cpi	r24, 0x01	; 1
 5e4:	91 05       	cpc	r25, r1
 5e6:	d1 f0       	breq	.+52     	; 0x61c <DIO_uint8SetValuePort+0x66>
 5e8:	2e 81       	ldd	r18, Y+6	; 0x06
 5ea:	3f 81       	ldd	r19, Y+7	; 0x07
 5ec:	22 30       	cpi	r18, 0x02	; 2
 5ee:	31 05       	cpc	r19, r1
 5f0:	2c f4       	brge	.+10     	; 0x5fc <DIO_uint8SetValuePort+0x46>
 5f2:	8e 81       	ldd	r24, Y+6	; 0x06
 5f4:	9f 81       	ldd	r25, Y+7	; 0x07
 5f6:	00 97       	sbiw	r24, 0x00	; 0
 5f8:	61 f0       	breq	.+24     	; 0x612 <DIO_uint8SetValuePort+0x5c>
 5fa:	1f c0       	rjmp	.+62     	; 0x63a <DIO_uint8SetValuePort+0x84>
 5fc:	2e 81       	ldd	r18, Y+6	; 0x06
 5fe:	3f 81       	ldd	r19, Y+7	; 0x07
 600:	22 30       	cpi	r18, 0x02	; 2
 602:	31 05       	cpc	r19, r1
 604:	81 f0       	breq	.+32     	; 0x626 <DIO_uint8SetValuePort+0x70>
 606:	8e 81       	ldd	r24, Y+6	; 0x06
 608:	9f 81       	ldd	r25, Y+7	; 0x07
 60a:	83 30       	cpi	r24, 0x03	; 3
 60c:	91 05       	cpc	r25, r1
 60e:	81 f0       	breq	.+32     	; 0x630 <DIO_uint8SetValuePort+0x7a>
 610:	14 c0       	rjmp	.+40     	; 0x63a <DIO_uint8SetValuePort+0x84>
				{
					case PORT_A:PORTA=PORT_HIGH;break;
 612:	eb e3       	ldi	r30, 0x3B	; 59
 614:	f0 e0       	ldi	r31, 0x00	; 0
 616:	8f ef       	ldi	r24, 0xFF	; 255
 618:	80 83       	st	Z, r24
 61a:	49 c0       	rjmp	.+146    	; 0x6ae <DIO_uint8SetValuePort+0xf8>
					case PORT_B:PORTB=PORT_HIGH;break;
 61c:	e8 e3       	ldi	r30, 0x38	; 56
 61e:	f0 e0       	ldi	r31, 0x00	; 0
 620:	8f ef       	ldi	r24, 0xFF	; 255
 622:	80 83       	st	Z, r24
 624:	44 c0       	rjmp	.+136    	; 0x6ae <DIO_uint8SetValuePort+0xf8>
					case PORT_C:PORTC=PORT_HIGH;break;
 626:	e5 e3       	ldi	r30, 0x35	; 53
 628:	f0 e0       	ldi	r31, 0x00	; 0
 62a:	8f ef       	ldi	r24, 0xFF	; 255
 62c:	80 83       	st	Z, r24
 62e:	3f c0       	rjmp	.+126    	; 0x6ae <DIO_uint8SetValuePort+0xf8>
					case PORT_D:PORTD=PORT_HIGH;break;
 630:	e2 e3       	ldi	r30, 0x32	; 50
 632:	f0 e0       	ldi	r31, 0x00	; 0
 634:	8f ef       	ldi	r24, 0xFF	; 255
 636:	80 83       	st	Z, r24
 638:	3a c0       	rjmp	.+116    	; 0x6ae <DIO_uint8SetValuePort+0xf8>
					default: DIO_L_ErrorCode=1;break;
 63a:	81 e0       	ldi	r24, 0x01	; 1
 63c:	89 83       	std	Y+1, r24	; 0x01
 63e:	37 c0       	rjmp	.+110    	; 0x6ae <DIO_uint8SetValuePort+0xf8>
				}
			}
		else if (Copy_Value==PORT_LOW)
 640:	8b 81       	ldd	r24, Y+3	; 0x03
 642:	88 23       	and	r24, r24
 644:	91 f5       	brne	.+100    	; 0x6aa <DIO_uint8SetValuePort+0xf4>
			{
				switch(Copy_Port)
 646:	8a 81       	ldd	r24, Y+2	; 0x02
 648:	28 2f       	mov	r18, r24
 64a:	30 e0       	ldi	r19, 0x00	; 0
 64c:	3d 83       	std	Y+5, r19	; 0x05
 64e:	2c 83       	std	Y+4, r18	; 0x04
 650:	8c 81       	ldd	r24, Y+4	; 0x04
 652:	9d 81       	ldd	r25, Y+5	; 0x05
 654:	81 30       	cpi	r24, 0x01	; 1
 656:	91 05       	cpc	r25, r1
 658:	c9 f0       	breq	.+50     	; 0x68c <DIO_uint8SetValuePort+0xd6>
 65a:	2c 81       	ldd	r18, Y+4	; 0x04
 65c:	3d 81       	ldd	r19, Y+5	; 0x05
 65e:	22 30       	cpi	r18, 0x02	; 2
 660:	31 05       	cpc	r19, r1
 662:	2c f4       	brge	.+10     	; 0x66e <DIO_uint8SetValuePort+0xb8>
 664:	8c 81       	ldd	r24, Y+4	; 0x04
 666:	9d 81       	ldd	r25, Y+5	; 0x05
 668:	00 97       	sbiw	r24, 0x00	; 0
 66a:	61 f0       	breq	.+24     	; 0x684 <DIO_uint8SetValuePort+0xce>
 66c:	1b c0       	rjmp	.+54     	; 0x6a4 <DIO_uint8SetValuePort+0xee>
 66e:	2c 81       	ldd	r18, Y+4	; 0x04
 670:	3d 81       	ldd	r19, Y+5	; 0x05
 672:	22 30       	cpi	r18, 0x02	; 2
 674:	31 05       	cpc	r19, r1
 676:	71 f0       	breq	.+28     	; 0x694 <DIO_uint8SetValuePort+0xde>
 678:	8c 81       	ldd	r24, Y+4	; 0x04
 67a:	9d 81       	ldd	r25, Y+5	; 0x05
 67c:	83 30       	cpi	r24, 0x03	; 3
 67e:	91 05       	cpc	r25, r1
 680:	69 f0       	breq	.+26     	; 0x69c <DIO_uint8SetValuePort+0xe6>
 682:	10 c0       	rjmp	.+32     	; 0x6a4 <DIO_uint8SetValuePort+0xee>
				{
					case PORT_A: PORTA=PORT_LOW;break;
 684:	eb e3       	ldi	r30, 0x3B	; 59
 686:	f0 e0       	ldi	r31, 0x00	; 0
 688:	10 82       	st	Z, r1
 68a:	11 c0       	rjmp	.+34     	; 0x6ae <DIO_uint8SetValuePort+0xf8>
					case PORT_B: PORTB=PORT_LOW;break;
 68c:	e8 e3       	ldi	r30, 0x38	; 56
 68e:	f0 e0       	ldi	r31, 0x00	; 0
 690:	10 82       	st	Z, r1
 692:	0d c0       	rjmp	.+26     	; 0x6ae <DIO_uint8SetValuePort+0xf8>
					case PORT_C: PORTC=PORT_LOW;break;
 694:	e5 e3       	ldi	r30, 0x35	; 53
 696:	f0 e0       	ldi	r31, 0x00	; 0
 698:	10 82       	st	Z, r1
 69a:	09 c0       	rjmp	.+18     	; 0x6ae <DIO_uint8SetValuePort+0xf8>
					case PORT_D: PORTD=PORT_LOW;break;
 69c:	e2 e3       	ldi	r30, 0x32	; 50
 69e:	f0 e0       	ldi	r31, 0x00	; 0
 6a0:	10 82       	st	Z, r1
 6a2:	05 c0       	rjmp	.+10     	; 0x6ae <DIO_uint8SetValuePort+0xf8>
					default: DIO_L_ErrorCode=1;break;
 6a4:	81 e0       	ldi	r24, 0x01	; 1
 6a6:	89 83       	std	Y+1, r24	; 0x01
 6a8:	02 c0       	rjmp	.+4      	; 0x6ae <DIO_uint8SetValuePort+0xf8>
				}
			}
		else
			DIO_L_ErrorCode=1;
 6aa:	81 e0       	ldi	r24, 0x01	; 1
 6ac:	89 83       	std	Y+1, r24	; 0x01
}
 6ae:	27 96       	adiw	r28, 0x07	; 7
 6b0:	0f b6       	in	r0, 0x3f	; 63
 6b2:	f8 94       	cli
 6b4:	de bf       	out	0x3e, r29	; 62
 6b6:	0f be       	out	0x3f, r0	; 63
 6b8:	cd bf       	out	0x3d, r28	; 61
 6ba:	cf 91       	pop	r28
 6bc:	df 91       	pop	r29
 6be:	08 95       	ret

000006c0 <DIO_uint8Set_SpecificValue_Port>:

/*-------------------------------------------------------------------------------------*/

void DIO_uint8Set_SpecificValue_Port(PORT_NAME Copy_Port,uint8 Copy_Value)
{
 6c0:	df 93       	push	r29
 6c2:	cf 93       	push	r28
 6c4:	00 d0       	rcall	.+0      	; 0x6c6 <DIO_uint8Set_SpecificValue_Port+0x6>
 6c6:	00 d0       	rcall	.+0      	; 0x6c8 <DIO_uint8Set_SpecificValue_Port+0x8>
 6c8:	0f 92       	push	r0
 6ca:	cd b7       	in	r28, 0x3d	; 61
 6cc:	de b7       	in	r29, 0x3e	; 62
 6ce:	8a 83       	std	Y+2, r24	; 0x02
 6d0:	6b 83       	std	Y+3, r22	; 0x03
	uint8 DIO_L_ErrorCode;
	/* Check on the Required PORT Number */
	switch(Copy_Port)
 6d2:	8a 81       	ldd	r24, Y+2	; 0x02
 6d4:	28 2f       	mov	r18, r24
 6d6:	30 e0       	ldi	r19, 0x00	; 0
 6d8:	3d 83       	std	Y+5, r19	; 0x05
 6da:	2c 83       	std	Y+4, r18	; 0x04
 6dc:	8c 81       	ldd	r24, Y+4	; 0x04
 6de:	9d 81       	ldd	r25, Y+5	; 0x05
 6e0:	81 30       	cpi	r24, 0x01	; 1
 6e2:	91 05       	cpc	r25, r1
 6e4:	d1 f0       	breq	.+52     	; 0x71a <DIO_uint8Set_SpecificValue_Port+0x5a>
 6e6:	2c 81       	ldd	r18, Y+4	; 0x04
 6e8:	3d 81       	ldd	r19, Y+5	; 0x05
 6ea:	22 30       	cpi	r18, 0x02	; 2
 6ec:	31 05       	cpc	r19, r1
 6ee:	2c f4       	brge	.+10     	; 0x6fa <DIO_uint8Set_SpecificValue_Port+0x3a>
 6f0:	8c 81       	ldd	r24, Y+4	; 0x04
 6f2:	9d 81       	ldd	r25, Y+5	; 0x05
 6f4:	00 97       	sbiw	r24, 0x00	; 0
 6f6:	61 f0       	breq	.+24     	; 0x710 <DIO_uint8Set_SpecificValue_Port+0x50>
 6f8:	1f c0       	rjmp	.+62     	; 0x738 <DIO_uint8Set_SpecificValue_Port+0x78>
 6fa:	2c 81       	ldd	r18, Y+4	; 0x04
 6fc:	3d 81       	ldd	r19, Y+5	; 0x05
 6fe:	22 30       	cpi	r18, 0x02	; 2
 700:	31 05       	cpc	r19, r1
 702:	81 f0       	breq	.+32     	; 0x724 <DIO_uint8Set_SpecificValue_Port+0x64>
 704:	8c 81       	ldd	r24, Y+4	; 0x04
 706:	9d 81       	ldd	r25, Y+5	; 0x05
 708:	83 30       	cpi	r24, 0x03	; 3
 70a:	91 05       	cpc	r25, r1
 70c:	81 f0       	breq	.+32     	; 0x72e <DIO_uint8Set_SpecificValue_Port+0x6e>
 70e:	14 c0       	rjmp	.+40     	; 0x738 <DIO_uint8Set_SpecificValue_Port+0x78>
	{
		case PORT_A:PORTA=Copy_Value;break;
 710:	eb e3       	ldi	r30, 0x3B	; 59
 712:	f0 e0       	ldi	r31, 0x00	; 0
 714:	8b 81       	ldd	r24, Y+3	; 0x03
 716:	80 83       	st	Z, r24
 718:	11 c0       	rjmp	.+34     	; 0x73c <DIO_uint8Set_SpecificValue_Port+0x7c>
		case PORT_B:PORTB=Copy_Value;break;
 71a:	e8 e3       	ldi	r30, 0x38	; 56
 71c:	f0 e0       	ldi	r31, 0x00	; 0
 71e:	8b 81       	ldd	r24, Y+3	; 0x03
 720:	80 83       	st	Z, r24
 722:	0c c0       	rjmp	.+24     	; 0x73c <DIO_uint8Set_SpecificValue_Port+0x7c>
		case PORT_C:PORTC=Copy_Value;break;
 724:	e5 e3       	ldi	r30, 0x35	; 53
 726:	f0 e0       	ldi	r31, 0x00	; 0
 728:	8b 81       	ldd	r24, Y+3	; 0x03
 72a:	80 83       	st	Z, r24
 72c:	07 c0       	rjmp	.+14     	; 0x73c <DIO_uint8Set_SpecificValue_Port+0x7c>
		case PORT_D:PORTD=Copy_Value;break;
 72e:	e2 e3       	ldi	r30, 0x32	; 50
 730:	f0 e0       	ldi	r31, 0x00	; 0
 732:	8b 81       	ldd	r24, Y+3	; 0x03
 734:	80 83       	st	Z, r24
 736:	02 c0       	rjmp	.+4      	; 0x73c <DIO_uint8Set_SpecificValue_Port+0x7c>
		default: DIO_L_ErrorCode=1;break;
 738:	81 e0       	ldi	r24, 0x01	; 1
 73a:	89 83       	std	Y+1, r24	; 0x01
	}

}
 73c:	0f 90       	pop	r0
 73e:	0f 90       	pop	r0
 740:	0f 90       	pop	r0
 742:	0f 90       	pop	r0
 744:	0f 90       	pop	r0
 746:	cf 91       	pop	r28
 748:	df 91       	pop	r29
 74a:	08 95       	ret

0000074c <DIO_uint8Set_SpecificValue_Port_Direction>:

/*------------------------------------------------------------------------*/

void DIO_uint8Set_SpecificValue_Port_Direction(PORT_NAME Copy_Port,uint8 Copy_Dir)
{
 74c:	df 93       	push	r29
 74e:	cf 93       	push	r28
 750:	00 d0       	rcall	.+0      	; 0x752 <DIO_uint8Set_SpecificValue_Port_Direction+0x6>
 752:	00 d0       	rcall	.+0      	; 0x754 <DIO_uint8Set_SpecificValue_Port_Direction+0x8>
 754:	0f 92       	push	r0
 756:	cd b7       	in	r28, 0x3d	; 61
 758:	de b7       	in	r29, 0x3e	; 62
 75a:	8a 83       	std	Y+2, r24	; 0x02
 75c:	6b 83       	std	Y+3, r22	; 0x03
	uint8 DIO_L_ErrorCode;
		/* Check on the Required PORT Number */
		switch(Copy_Port)
 75e:	8a 81       	ldd	r24, Y+2	; 0x02
 760:	28 2f       	mov	r18, r24
 762:	30 e0       	ldi	r19, 0x00	; 0
 764:	3d 83       	std	Y+5, r19	; 0x05
 766:	2c 83       	std	Y+4, r18	; 0x04
 768:	8c 81       	ldd	r24, Y+4	; 0x04
 76a:	9d 81       	ldd	r25, Y+5	; 0x05
 76c:	81 30       	cpi	r24, 0x01	; 1
 76e:	91 05       	cpc	r25, r1
 770:	d1 f0       	breq	.+52     	; 0x7a6 <DIO_uint8Set_SpecificValue_Port_Direction+0x5a>
 772:	2c 81       	ldd	r18, Y+4	; 0x04
 774:	3d 81       	ldd	r19, Y+5	; 0x05
 776:	22 30       	cpi	r18, 0x02	; 2
 778:	31 05       	cpc	r19, r1
 77a:	2c f4       	brge	.+10     	; 0x786 <DIO_uint8Set_SpecificValue_Port_Direction+0x3a>
 77c:	8c 81       	ldd	r24, Y+4	; 0x04
 77e:	9d 81       	ldd	r25, Y+5	; 0x05
 780:	00 97       	sbiw	r24, 0x00	; 0
 782:	61 f0       	breq	.+24     	; 0x79c <DIO_uint8Set_SpecificValue_Port_Direction+0x50>
 784:	1f c0       	rjmp	.+62     	; 0x7c4 <DIO_uint8Set_SpecificValue_Port_Direction+0x78>
 786:	2c 81       	ldd	r18, Y+4	; 0x04
 788:	3d 81       	ldd	r19, Y+5	; 0x05
 78a:	22 30       	cpi	r18, 0x02	; 2
 78c:	31 05       	cpc	r19, r1
 78e:	81 f0       	breq	.+32     	; 0x7b0 <DIO_uint8Set_SpecificValue_Port_Direction+0x64>
 790:	8c 81       	ldd	r24, Y+4	; 0x04
 792:	9d 81       	ldd	r25, Y+5	; 0x05
 794:	83 30       	cpi	r24, 0x03	; 3
 796:	91 05       	cpc	r25, r1
 798:	81 f0       	breq	.+32     	; 0x7ba <DIO_uint8Set_SpecificValue_Port_Direction+0x6e>
 79a:	14 c0       	rjmp	.+40     	; 0x7c4 <DIO_uint8Set_SpecificValue_Port_Direction+0x78>
		{
			case PORT_A:DDRA=Copy_Dir;break;
 79c:	ea e3       	ldi	r30, 0x3A	; 58
 79e:	f0 e0       	ldi	r31, 0x00	; 0
 7a0:	8b 81       	ldd	r24, Y+3	; 0x03
 7a2:	80 83       	st	Z, r24
 7a4:	11 c0       	rjmp	.+34     	; 0x7c8 <DIO_uint8Set_SpecificValue_Port_Direction+0x7c>
			case PORT_B:DDRB=Copy_Dir;break;
 7a6:	e7 e3       	ldi	r30, 0x37	; 55
 7a8:	f0 e0       	ldi	r31, 0x00	; 0
 7aa:	8b 81       	ldd	r24, Y+3	; 0x03
 7ac:	80 83       	st	Z, r24
 7ae:	0c c0       	rjmp	.+24     	; 0x7c8 <DIO_uint8Set_SpecificValue_Port_Direction+0x7c>
			case PORT_C:DDRC=Copy_Dir;break;
 7b0:	e4 e3       	ldi	r30, 0x34	; 52
 7b2:	f0 e0       	ldi	r31, 0x00	; 0
 7b4:	8b 81       	ldd	r24, Y+3	; 0x03
 7b6:	80 83       	st	Z, r24
 7b8:	07 c0       	rjmp	.+14     	; 0x7c8 <DIO_uint8Set_SpecificValue_Port_Direction+0x7c>
			case PORT_D:DDRD=Copy_Dir;break;
 7ba:	e1 e3       	ldi	r30, 0x31	; 49
 7bc:	f0 e0       	ldi	r31, 0x00	; 0
 7be:	8b 81       	ldd	r24, Y+3	; 0x03
 7c0:	80 83       	st	Z, r24
 7c2:	02 c0       	rjmp	.+4      	; 0x7c8 <DIO_uint8Set_SpecificValue_Port_Direction+0x7c>
			default: DIO_L_ErrorCode=1;break;
 7c4:	81 e0       	ldi	r24, 0x01	; 1
 7c6:	89 83       	std	Y+1, r24	; 0x01
		}
}
 7c8:	0f 90       	pop	r0
 7ca:	0f 90       	pop	r0
 7cc:	0f 90       	pop	r0
 7ce:	0f 90       	pop	r0
 7d0:	0f 90       	pop	r0
 7d2:	cf 91       	pop	r28
 7d4:	df 91       	pop	r29
 7d6:	08 95       	ret

000007d8 <DIO_uint8Read_PIN>:

/*------------------------------------------------------------------------*/

PIN_VALUE DIO_uint8Read_PIN(PIN_Reg_NAME Copy_Port,PIN_NAME Copy_Pin)
{
 7d8:	df 93       	push	r29
 7da:	cf 93       	push	r28
 7dc:	00 d0       	rcall	.+0      	; 0x7de <DIO_uint8Read_PIN+0x6>
 7de:	00 d0       	rcall	.+0      	; 0x7e0 <DIO_uint8Read_PIN+0x8>
 7e0:	00 d0       	rcall	.+0      	; 0x7e2 <DIO_uint8Read_PIN+0xa>
 7e2:	cd b7       	in	r28, 0x3d	; 61
 7e4:	de b7       	in	r29, 0x3e	; 62
 7e6:	8b 83       	std	Y+3, r24	; 0x03
 7e8:	6c 83       	std	Y+4, r22	; 0x04
	PIN_VALUE Copy_Value;
	uint8 DIO_L_ErrorCode;

	if(Copy_Port <= PIN_D && Copy_Pin <= PIN_7)
 7ea:	8b 81       	ldd	r24, Y+3	; 0x03
 7ec:	84 30       	cpi	r24, 0x04	; 4
 7ee:	08 f0       	brcs	.+2      	; 0x7f2 <DIO_uint8Read_PIN+0x1a>
 7f0:	6f c0       	rjmp	.+222    	; 0x8d0 <__stack+0x71>
 7f2:	8c 81       	ldd	r24, Y+4	; 0x04
 7f4:	88 30       	cpi	r24, 0x08	; 8
 7f6:	08 f0       	brcs	.+2      	; 0x7fa <DIO_uint8Read_PIN+0x22>
 7f8:	6b c0       	rjmp	.+214    	; 0x8d0 <__stack+0x71>
	{
		switch(Copy_Port)
 7fa:	8b 81       	ldd	r24, Y+3	; 0x03
 7fc:	28 2f       	mov	r18, r24
 7fe:	30 e0       	ldi	r19, 0x00	; 0
 800:	3e 83       	std	Y+6, r19	; 0x06
 802:	2d 83       	std	Y+5, r18	; 0x05
 804:	4d 81       	ldd	r20, Y+5	; 0x05
 806:	5e 81       	ldd	r21, Y+6	; 0x06
 808:	41 30       	cpi	r20, 0x01	; 1
 80a:	51 05       	cpc	r21, r1
 80c:	41 f1       	breq	.+80     	; 0x85e <DIO_uint8Read_PIN+0x86>
 80e:	8d 81       	ldd	r24, Y+5	; 0x05
 810:	9e 81       	ldd	r25, Y+6	; 0x06
 812:	82 30       	cpi	r24, 0x02	; 2
 814:	91 05       	cpc	r25, r1
 816:	34 f4       	brge	.+12     	; 0x824 <DIO_uint8Read_PIN+0x4c>
 818:	2d 81       	ldd	r18, Y+5	; 0x05
 81a:	3e 81       	ldd	r19, Y+6	; 0x06
 81c:	21 15       	cp	r18, r1
 81e:	31 05       	cpc	r19, r1
 820:	61 f0       	breq	.+24     	; 0x83a <DIO_uint8Read_PIN+0x62>
 822:	53 c0       	rjmp	.+166    	; 0x8ca <__stack+0x6b>
 824:	4d 81       	ldd	r20, Y+5	; 0x05
 826:	5e 81       	ldd	r21, Y+6	; 0x06
 828:	42 30       	cpi	r20, 0x02	; 2
 82a:	51 05       	cpc	r21, r1
 82c:	51 f1       	breq	.+84     	; 0x882 <__stack+0x23>
 82e:	8d 81       	ldd	r24, Y+5	; 0x05
 830:	9e 81       	ldd	r25, Y+6	; 0x06
 832:	83 30       	cpi	r24, 0x03	; 3
 834:	91 05       	cpc	r25, r1
 836:	b9 f1       	breq	.+110    	; 0x8a6 <__stack+0x47>
 838:	48 c0       	rjmp	.+144    	; 0x8ca <__stack+0x6b>
			{
				case PIN_A:Copy_Value = GET_BIT(PINA,Copy_Pin); break;
 83a:	e9 e3       	ldi	r30, 0x39	; 57
 83c:	f0 e0       	ldi	r31, 0x00	; 0
 83e:	80 81       	ld	r24, Z
 840:	28 2f       	mov	r18, r24
 842:	30 e0       	ldi	r19, 0x00	; 0
 844:	8c 81       	ldd	r24, Y+4	; 0x04
 846:	88 2f       	mov	r24, r24
 848:	90 e0       	ldi	r25, 0x00	; 0
 84a:	a9 01       	movw	r20, r18
 84c:	02 c0       	rjmp	.+4      	; 0x852 <DIO_uint8Read_PIN+0x7a>
 84e:	55 95       	asr	r21
 850:	47 95       	ror	r20
 852:	8a 95       	dec	r24
 854:	e2 f7       	brpl	.-8      	; 0x84e <DIO_uint8Read_PIN+0x76>
 856:	ca 01       	movw	r24, r20
 858:	81 70       	andi	r24, 0x01	; 1
 85a:	8a 83       	std	Y+2, r24	; 0x02
 85c:	3b c0       	rjmp	.+118    	; 0x8d4 <__stack+0x75>
				case PIN_B:Copy_Value = GET_BIT(PINB,Copy_Pin); break;
 85e:	e6 e3       	ldi	r30, 0x36	; 54
 860:	f0 e0       	ldi	r31, 0x00	; 0
 862:	80 81       	ld	r24, Z
 864:	28 2f       	mov	r18, r24
 866:	30 e0       	ldi	r19, 0x00	; 0
 868:	8c 81       	ldd	r24, Y+4	; 0x04
 86a:	88 2f       	mov	r24, r24
 86c:	90 e0       	ldi	r25, 0x00	; 0
 86e:	a9 01       	movw	r20, r18
 870:	02 c0       	rjmp	.+4      	; 0x876 <__stack+0x17>
 872:	55 95       	asr	r21
 874:	47 95       	ror	r20
 876:	8a 95       	dec	r24
 878:	e2 f7       	brpl	.-8      	; 0x872 <__stack+0x13>
 87a:	ca 01       	movw	r24, r20
 87c:	81 70       	andi	r24, 0x01	; 1
 87e:	8a 83       	std	Y+2, r24	; 0x02
 880:	29 c0       	rjmp	.+82     	; 0x8d4 <__stack+0x75>
				case PIN_C:Copy_Value = GET_BIT(PINC,Copy_Pin); break;
 882:	e3 e3       	ldi	r30, 0x33	; 51
 884:	f0 e0       	ldi	r31, 0x00	; 0
 886:	80 81       	ld	r24, Z
 888:	28 2f       	mov	r18, r24
 88a:	30 e0       	ldi	r19, 0x00	; 0
 88c:	8c 81       	ldd	r24, Y+4	; 0x04
 88e:	88 2f       	mov	r24, r24
 890:	90 e0       	ldi	r25, 0x00	; 0
 892:	a9 01       	movw	r20, r18
 894:	02 c0       	rjmp	.+4      	; 0x89a <__stack+0x3b>
 896:	55 95       	asr	r21
 898:	47 95       	ror	r20
 89a:	8a 95       	dec	r24
 89c:	e2 f7       	brpl	.-8      	; 0x896 <__stack+0x37>
 89e:	ca 01       	movw	r24, r20
 8a0:	81 70       	andi	r24, 0x01	; 1
 8a2:	8a 83       	std	Y+2, r24	; 0x02
 8a4:	17 c0       	rjmp	.+46     	; 0x8d4 <__stack+0x75>
				case PIN_D:Copy_Value = GET_BIT(PIND,Copy_Pin); break;
 8a6:	e0 e3       	ldi	r30, 0x30	; 48
 8a8:	f0 e0       	ldi	r31, 0x00	; 0
 8aa:	80 81       	ld	r24, Z
 8ac:	28 2f       	mov	r18, r24
 8ae:	30 e0       	ldi	r19, 0x00	; 0
 8b0:	8c 81       	ldd	r24, Y+4	; 0x04
 8b2:	88 2f       	mov	r24, r24
 8b4:	90 e0       	ldi	r25, 0x00	; 0
 8b6:	a9 01       	movw	r20, r18
 8b8:	02 c0       	rjmp	.+4      	; 0x8be <__stack+0x5f>
 8ba:	55 95       	asr	r21
 8bc:	47 95       	ror	r20
 8be:	8a 95       	dec	r24
 8c0:	e2 f7       	brpl	.-8      	; 0x8ba <__stack+0x5b>
 8c2:	ca 01       	movw	r24, r20
 8c4:	81 70       	andi	r24, 0x01	; 1
 8c6:	8a 83       	std	Y+2, r24	; 0x02
 8c8:	05 c0       	rjmp	.+10     	; 0x8d4 <__stack+0x75>
				default: DIO_L_ErrorCode=1; break;
 8ca:	81 e0       	ldi	r24, 0x01	; 1
 8cc:	89 83       	std	Y+1, r24	; 0x01
 8ce:	02 c0       	rjmp	.+4      	; 0x8d4 <__stack+0x75>
			}
	}
	else
	{
		DIO_L_ErrorCode=1;
 8d0:	81 e0       	ldi	r24, 0x01	; 1
 8d2:	89 83       	std	Y+1, r24	; 0x01
	}

	return Copy_Value;
 8d4:	8a 81       	ldd	r24, Y+2	; 0x02

}
 8d6:	26 96       	adiw	r28, 0x06	; 6
 8d8:	0f b6       	in	r0, 0x3f	; 63
 8da:	f8 94       	cli
 8dc:	de bf       	out	0x3e, r29	; 62
 8de:	0f be       	out	0x3f, r0	; 63
 8e0:	cd bf       	out	0x3d, r28	; 61
 8e2:	cf 91       	pop	r28
 8e4:	df 91       	pop	r29
 8e6:	08 95       	ret

000008e8 <main>:
 */

#include "DIO_INTERFACE.h"

void main()
{
 8e8:	df 93       	push	r29
 8ea:	cf 93       	push	r28
 8ec:	cd b7       	in	r28, 0x3d	; 61
 8ee:	de b7       	in	r29, 0x3e	; 62
 8f0:	ff cf       	rjmp	.-2      	; 0x8f0 <main+0x8>

000008f2 <_exit>:
 8f2:	f8 94       	cli

000008f4 <__stop_program>:
 8f4:	ff cf       	rjmp	.-2      	; 0x8f4 <__stop_program>
